target datalayout = "e-m:e-p270:32:32-p271:32:32-p272:64:64-i64:64-i128:128-f80:128-n8:16:32:64-S128"
target triple = "x86_64-pc-linux-gnu"

%struct.evhttp_request = type { %struct.anon.8, ptr, i32, ptr, ptr, ptr, i16, ptr, i32, i32, i64, i64, ptr, ptr, i8, i8, i32, ptr, ptr, i64, i8, ptr, ptr, ptr, ptr, ptr, ptr, ptr, ptr }
%struct.anon.8 = type { ptr, ptr }

@event_debug_logging_mask_ = external global i32, align 4
@.str.33 = private unnamed_addr constant [27 x i8] c"%s: request %p has no uri\0A\00", align 1
@__func__.evhttp_request_get_uri = private unnamed_addr constant [23 x i8] c"evhttp_request_get_uri\00", align 1

; Function Attrs: nounwind uwtable
define ptr @evhttp_request_get_uri(ptr noundef %0) #0 {
  %2 = alloca ptr, align 8
  store ptr %0, ptr %2, align 8
  %3 = load ptr, ptr %2, align 8
  %4 = getelementptr inbounds nuw %struct.evhttp_request, ptr %3, i32 0, i32 12
  %5 = load ptr, ptr %4, align 8
  %6 = icmp eq ptr %5, null
  br i1 %6, label %7, label %15

7:                                                ; preds = %1
  br label %8

8:                                                ; preds = %7
  %9 = load i32, ptr @event_debug_logging_mask_, align 4
  %10 = icmp ne i32 %9, 0
  br i1 %10, label %11, label %13

11:                                               ; preds = %8
  %12 = load ptr, ptr %2, align 8
  call void (ptr, ...) @event_debugx_(ptr noundef @.str.33, ptr noundef @__func__.evhttp_request_get_uri, ptr noundef %12)
  br label %13

13:                                               ; preds = %11, %8
  br label %14

14:                                               ; preds = %13
  br label %15

15:                                               ; preds = %14, %1
  %16 = load ptr, ptr %2, align 8
  %17 = getelementptr inbounds nuw %struct.evhttp_request, ptr %16, i32 0, i32 12
  %18 = load ptr, ptr %17, align 8
  ret ptr %18
}